; Function Attrs: mustprogress noreturn uwtable
define internal fastcc void @_ZN12_GLOBAL__N_110ParseErrorERKNSt7__cxx1112basic_stringIcSt11char_traitsIcESaIcEEEPKN6Assimp3FBX7ElementE(ptr noundef nonnull align 8 dereferenceable(32) %message, ptr noundef readonly %element) unnamed_addr #5 personality ptr @__gxx_personality_v0 {
entry:
  %tobool.not = icmp eq ptr %element, null
  br i1 %tobool.not, label %if.end, label %if.then

if.then:                                          ; preds = %entry
  %0 = load ptr, ptr %element, align 8
  tail call fastcc void @_ZN12_GLOBAL__N_110ParseErrorERKNSt7__cxx1112basic_stringIcSt11char_traitsIcESaIcEEERKN6Assimp3FBX5TokenE(ptr noundef nonnull align 8 dereferenceable(32) %message, ptr noundef nonnull align 8 dereferenceable(36) %0) #22
  unreachable

if.end:                                           ; preds = %entry
  %exception = tail call ptr @__cxa_allocate_exception(i64 16) #21
  invoke void @_ZN17DeadlyImportErrorC2IJRA12_KcRKNSt7__cxx1112basic_stringIcSt11char_traitsIcESaIcEEEEEEDpOT_(ptr noundef nonnull align 8 dereferenceable(16) %exception, ptr noundef nonnull align 1 dereferenceable(12) @.str.43, ptr noundef nonnull align 8 dereferenceable(32) %message)
          to label %invoke.cont unwind label %lpad

invoke.cont:                                      ; preds = %if.end
  tail call void @__cxa_throw(ptr nonnull %exception, ptr nonnull @_ZTI17DeadlyImportError, ptr nonnull @_ZN17DeadlyImportErrorD2Ev) #22
  unreachable

lpad:                                             ; preds = %if.end
  %1 = landingpad { ptr, i32 }
          cleanup
  tail call void @__cxa_free_exception(ptr %exception) #21
  resume { ptr, i32 } %1
}